target datalayout = "e-m:e-p270:32:32-p271:32:32-p272:64:64-i64:64-i128:128-f80:128-n8:16:32:64-S128"
target triple = "x86_64-pc-linux-gnu"

%struct._ir_ctx = type { ptr, i32, i32, i32, i32, i32, i32, i32, i32, i32, i32, %struct._ir_insn, ptr, ptr, ptr, i32, i32, i32, ptr, ptr, ptr, ptr, ptr, ptr, i32, i32, i64, i32, i32, i32, i64, i32, i32, i32, i32, ptr, ptr, ptr, ptr, ptr, ptr, %union.anon.13, ptr, i32, i32, i32, i64, i32, i32, i32, ptr, ptr, ptr, ptr, %struct._ir_strtab, [61 x i32], [14 x i32] }
%struct._ir_insn = type { %struct.anon, %union.anon.5 }
%struct.anon = type { %union.anon, %union.anon.4 }
%union.anon = type { i32 }
%union.anon.4 = type { i32 }
%union.anon.5 = type { %union._ir_val }
%union._ir_val = type { double }
%union.anon.13 = type { ptr }
%struct._ir_strtab = type { ptr, i32, i32, i32, i32, ptr, i32, i32 }
%struct._ir_use_list = type { i32, i32 }

@.str.28 = private unnamed_addr constant [3 x i8] c"}\0A\00", align 1
@.str.29 = private unnamed_addr constant [15 x i8] c"{ # Use Lists\0A\00", align 1
@.str.30 = private unnamed_addr constant [16 x i8] c"%05d(%d): [%05d\00", align 1
@.str.31 = private unnamed_addr constant [7 x i8] c", %05d\00", align 1
@.str.32 = private unnamed_addr constant [3 x i8] c"]\0A\00", align 1

; Function Attrs: nounwind uwtable
define hidden void @ir_dump_use_lists(ptr noundef %0, ptr noundef %1) #0 {
  %3 = alloca ptr, align 8
  %4 = alloca ptr, align 8
  %5 = alloca i32, align 4
  %6 = alloca i32, align 4
  %7 = alloca i32, align 4
  %8 = alloca ptr, align 8
  %9 = alloca ptr, align 8
  store ptr %0, ptr %3, align 8, !tbaa !4
  store ptr %1, ptr %4, align 8, !tbaa !9
  call void @llvm.lifetime.start.p0(i64 4, ptr %5) #6
  call void @llvm.lifetime.start.p0(i64 4, ptr %6) #6
  call void @llvm.lifetime.start.p0(i64 4, ptr %7) #6
  call void @llvm.lifetime.start.p0(i64 8, ptr %8) #6
  call void @llvm.lifetime.start.p0(i64 8, ptr %9) #6
  %10 = load ptr, ptr %3, align 8, !tbaa !4
  %11 = getelementptr inbounds nuw %struct._ir_ctx, ptr %10, i32 0, i32 13
  %12 = load ptr, ptr %11, align 8, !tbaa !37
  %13 = icmp ne ptr %12, null
  br i1 %13, label %14, label %76

14:                                               ; preds = %2
  %15 = load ptr, ptr %4, align 8, !tbaa !9
  %16 = call i32 (ptr, ptr, ...) @fprintf(ptr noundef %15, ptr noundef @.str.29) #6
  store i32 1, ptr %5, align 4, !tbaa !30
  %17 = load ptr, ptr %3, align 8, !tbaa !4
  %18 = getelementptr inbounds nuw %struct._ir_ctx, ptr %17, i32 0, i32 13
  %19 = load ptr, ptr %18, align 8, !tbaa !37
  %20 = getelementptr inbounds %struct._ir_use_list, ptr %19, i64 1
  store ptr %20, ptr %9, align 8, !tbaa !38
  br label %21

21:                                               ; preds = %68, %14
  %22 = load i32, ptr %5, align 4, !tbaa !30
  %23 = load ptr, ptr %3, align 8, !tbaa !4
  %24 = getelementptr inbounds nuw %struct._ir_ctx, ptr %23, i32 0, i32 1
  %25 = load i32, ptr %24, align 8, !tbaa !35
  %26 = icmp slt i32 %22, %25
  br i1 %26, label %27, label %73

27:                                               ; preds = %21
  %28 = load ptr, ptr %9, align 8, !tbaa !38
  %29 = getelementptr inbounds nuw %struct._ir_use_list, ptr %28, i32 0, i32 1
  %30 = load i32, ptr %29, align 4, !tbaa !39
  store i32 %30, ptr %7, align 4, !tbaa !30
  %31 = load i32, ptr %7, align 4, !tbaa !30
  %32 = icmp sgt i32 %31, 0
  br i1 %32, label %33, label %67

33:                                               ; preds = %27
  %34 = load ptr, ptr %3, align 8, !tbaa !4
  %35 = getelementptr inbounds nuw %struct._ir_ctx, ptr %34, i32 0, i32 14
  %36 = load ptr, ptr %35, align 8, !tbaa !41
  %37 = load ptr, ptr %9, align 8, !tbaa !38
  %38 = getelementptr inbounds nuw %struct._ir_use_list, ptr %37, i32 0, i32 0
  %39 = load i32, ptr %38, align 4, !tbaa !42
  %40 = sext i32 %39 to i64
  %41 = getelementptr inbounds i32, ptr %36, i64 %40
  store ptr %41, ptr %8, align 8, !tbaa !36
  %42 = load ptr, ptr %4, align 8, !tbaa !9
  %43 = load i32, ptr %5, align 4, !tbaa !30
  %44 = load i32, ptr %7, align 4, !tbaa !30
  %45 = load ptr, ptr %8, align 8, !tbaa !36
  %46 = load i32, ptr %45, align 4, !tbaa !30
  %47 = call i32 (ptr, ptr, ...) @fprintf(ptr noundef %42, ptr noundef @.str.30, i32 noundef %43, i32 noundef %44, i32 noundef %46) #6
  %48 = load ptr, ptr %8, align 8, !tbaa !36
  %49 = getelementptr inbounds nuw i32, ptr %48, i32 1
  store ptr %49, ptr %8, align 8, !tbaa !36
  store i32 1, ptr %6, align 4, !tbaa !30
  br label %50

50:                                               ; preds = %59, %33
  %51 = load i32, ptr %6, align 4, !tbaa !30
  %52 = load i32, ptr %7, align 4, !tbaa !30
  %53 = icmp slt i32 %51, %52
  br i1 %53, label %54, label %64

54:                                               ; preds = %50
  %55 = load ptr, ptr %4, align 8, !tbaa !9
  %56 = load ptr, ptr %8, align 8, !tbaa !36
  %57 = load i32, ptr %56, align 4, !tbaa !30
  %58 = call i32 (ptr, ptr, ...) @fprintf(ptr noundef %55, ptr noundef @.str.31, i32 noundef %57) #6
  br label %59

59:                                               ; preds = %54
  %60 = load i32, ptr %6, align 4, !tbaa !30
  %61 = add nsw i32 %60, 1
  store i32 %61, ptr %6, align 4, !tbaa !30
  %62 = load ptr, ptr %8, align 8, !tbaa !36
  %63 = getelementptr inbounds nuw i32, ptr %62, i32 1
  store ptr %63, ptr %8, align 8, !tbaa !36
  br label %50

64:                                               ; preds = %50
  %65 = load ptr, ptr %4, align 8, !tbaa !9
  %66 = call i32 (ptr, ptr, ...) @fprintf(ptr noundef %65, ptr noundef @.str.32) #6
  br label %67

67:                                               ; preds = %64, %27
  br label %68

68:                                               ; preds = %67
  %69 = load i32, ptr %5, align 4, !tbaa !30
  %70 = add nsw i32 %69, 1
  store i32 %70, ptr %5, align 4, !tbaa !30
  %71 = load ptr, ptr %9, align 8, !tbaa !38
  %72 = getelementptr inbounds nuw %struct._ir_use_list, ptr %71, i32 1
  store ptr %72, ptr %9, align 8, !tbaa !38
  br label %21

73:                                               ; preds = %21
  %74 = load ptr, ptr %4, align 8, !tbaa !9
  %75 = call i32 (ptr, ptr, ...) @fprintf(ptr noundef %74, ptr noundef @.str.28) #6
  br label %76

76:                                               ; preds = %73, %2
  call void @llvm.lifetime.end.p0(i64 8, ptr %9) #6
  call void @llvm.lifetime.end.p0(i64 8, ptr %8) #6
  call void @llvm.lifetime.end.p0(i64 4, ptr %7) #6
  call void @llvm.lifetime.end.p0(i64 4, ptr %6) #6
  call void @llvm.lifetime.end.p0(i64 4, ptr %5) #6
  ret void
}