; Function Attrs: nofree nounwind uwtable
define hidden void @ir_dump_use_lists(ptr noundef readonly captures(none) %0, ptr noundef captures(none) %1) local_unnamed_addr #4 {
  %3 = getelementptr inbounds nuw i8, ptr %0, i64 72
  %4 = load ptr, ptr %3, align 8, !tbaa !32
  %.not = icmp eq ptr %4, null
  br i1 %.not, label %33, label %5

5:                                                ; preds = %2
  %6 = tail call i64 @fwrite(ptr nonnull @.str.29, i64 14, i64 1, ptr %1)
  %7 = getelementptr inbounds nuw i8, ptr %0, i64 8
  %8 = load i32, ptr %7, align 8, !tbaa !29
  %9 = icmp sgt i32 %8, 1
  br i1 %9, label %.lr.ph35, label %._crit_edge36

.lr.ph35:                                         ; preds = %5
  %10 = load ptr, ptr %3, align 8, !tbaa !32
  %11 = getelementptr inbounds nuw i8, ptr %0, i64 80
  br label %12

12:                                               ; preds = %.lr.ph35, %28
  %13 = phi i32 [ %8, %.lr.ph35 ], [ %29, %28 ]
  %.pn32 = phi ptr [ %10, %.lr.ph35 ], [ %.033, %28 ]
  %.02431 = phi i32 [ 1, %.lr.ph35 ], [ %30, %28 ]
  %.033 = getelementptr inbounds nuw i8, ptr %.pn32, i64 8
  %14 = getelementptr inbounds nuw i8, ptr %.pn32, i64 12
  %15 = load i32, ptr %14, align 4, !tbaa !33
  %16 = icmp sgt i32 %15, 0
  br i1 %16, label %17, label %28

17:                                               ; preds = %12
  %18 = load ptr, ptr %11, align 8, !tbaa !35
  %19 = load i32, ptr %.033, align 4, !tbaa !36
  %20 = sext i32 %19 to i64
  %21 = getelementptr inbounds i32, ptr %18, i64 %20
  %22 = load i32, ptr %21, align 4, !tbaa !30
  %23 = tail call i32 (ptr, ptr, ...) @fprintf(ptr noundef %1, ptr noundef nonnull @.str.30, i32 noundef %.02431, i32 noundef %15, i32 noundef %22) #7
  %.not37 = icmp eq i32 %15, 1
  br i1 %.not37, label %._crit_edge, label %.lr.ph

.lr.ph:                                           ; preds = %17, %.lr.ph
  %.pn2729 = phi ptr [ %.023, %.lr.ph ], [ %21, %17 ]
  %.02528 = phi i32 [ %26, %.lr.ph ], [ 1, %17 ]
  %.023 = getelementptr inbounds nuw i8, ptr %.pn2729, i64 4
  %24 = load i32, ptr %.023, align 4, !tbaa !30
  %25 = tail call i32 (ptr, ptr, ...) @fprintf(ptr noundef %1, ptr noundef nonnull @.str.31, i32 noundef %24) #7
  %26 = add nuw nsw i32 %.02528, 1
  %exitcond.not = icmp eq i32 %26, %15
  br i1 %exitcond.not, label %._crit_edge, label %.lr.ph

._crit_edge:                                      ; preds = %.lr.ph, %17
  %27 = tail call i64 @fwrite(ptr nonnull @.str.32, i64 2, i64 1, ptr %1)
  %.pre = load i32, ptr %7, align 8, !tbaa !29
  br label %28

28:                                               ; preds = %12, %._crit_edge
  %29 = phi i32 [ %13, %12 ], [ %.pre, %._crit_edge ]
  %30 = add nuw nsw i32 %.02431, 1
  %31 = icmp slt i32 %30, %29
  br i1 %31, label %12, label %._crit_edge36

._crit_edge36:                                    ; preds = %28, %5
  %32 = tail call i64 @fwrite(ptr nonnull @.str.28, i64 2, i64 1, ptr %1)
  br label %33

33:                                               ; preds = %._crit_edge36, %2
  ret void
}